; Function Attrs: mustprogress nofree norecurse nounwind willreturn uwtable
define void @_ZN3gmx30AnalysisNeighborhoodPairSearchC2ERKSt10shared_ptrINS_8internal34AnalysisNeighborhoodPairSearchImplEE(ptr noundef nonnull writeonly align 8 captures(none) dereferenceable(16) initializes((0, 16)) %0, ptr noundef nonnull readonly align 8 captures(none) dereferenceable(16) %1) unnamed_addr #31 align 2 personality ptr @__gxx_personality_v0 {
  %3 = load ptr, ptr %1, align 8, !tbaa !67
  store ptr %3, ptr %0, align 8, !tbaa !67
  %4 = getelementptr inbounds nuw i8, ptr %0, i64 8
  %5 = getelementptr inbounds nuw i8, ptr %1, i64 8
  %6 = load ptr, ptr %5, align 8, !tbaa !40
  store ptr %6, ptr %4, align 8, !tbaa !40
  %.not.i.i.i = icmp eq ptr %6, null
  br i1 %.not.i.i.i, label %_ZNSt10shared_ptrIN3gmx8internal34AnalysisNeighborhoodPairSearchImplEEC2ERKS3_.exit, label %7

7:                                                ; preds = %2
  %8 = getelementptr inbounds nuw i8, ptr %6, i64 8
  %9 = load i8, ptr @__libc_single_threaded, align 1, !tbaa !48
  %.not.i.i.i.i = icmp eq i8 %9, 0
  br i1 %.not.i.i.i.i, label %13, label %10

10:                                               ; preds = %7
  %11 = load i32, ptr %8, align 4, !tbaa !39
  %12 = add nsw i32 %11, 1
  store i32 %12, ptr %8, align 4, !tbaa !39
  br label %_ZNSt10shared_ptrIN3gmx8internal34AnalysisNeighborhoodPairSearchImplEEC2ERKS3_.exit

13:                                               ; preds = %7
  %14 = atomicrmw volatile add ptr %8, i32 1 acq_rel, align 4
  br label %_ZNSt10shared_ptrIN3gmx8internal34AnalysisNeighborhoodPairSearchImplEEC2ERKS3_.exit

_ZNSt10shared_ptrIN3gmx8internal34AnalysisNeighborhoodPairSearchImplEEC2ERKS3_.exit: ; preds = %2, %10, %13
  ret void
}